target datalayout = "e-m:e-p270:32:32-p271:32:32-p272:64:64-i64:64-i128:128-f80:128-n8:16:32:64-S128"
target triple = "x86_64-pc-linux-gnu"

%struct.aclKeyResultCache = type { i32, %struct.getKeysResult }
%struct.getKeysResult = type { i32, i32, [6 x %struct.keyReference], ptr }
%struct.keyReference = type { i32, i32 }

; Function Attrs: nounwind uwtable
define dso_local void @cleanupACLKeyResultCache(ptr noundef %0) #0 {
  %2 = alloca ptr, align 8
  store ptr %0, ptr %2, align 8, !tbaa !32
  %3 = load ptr, ptr %2, align 8, !tbaa !32
  %4 = getelementptr inbounds nuw %struct.aclKeyResultCache, ptr %3, i32 0, i32 0
  %5 = load i32, ptr %4, align 8, !tbaa !176
  %6 = icmp ne i32 %5, 0
  br i1 %6, label %7, label %10

7:                                                ; preds = %1
  %8 = load ptr, ptr %2, align 8, !tbaa !32
  %9 = getelementptr inbounds nuw %struct.aclKeyResultCache, ptr %8, i32 0, i32 1
  call void @getKeysFreeResult(ptr noundef %9)
  br label %10

10:                                               ; preds = %7, %1
  ret void
}