; Function Attrs: nounwind uwtable
define dso_local void @cleanupACLKeyResultCache(ptr noundef %0) local_unnamed_addr #0 {
  %2 = load i32, ptr %0, align 8, !tbaa !171
  %.not = icmp eq i32 %2, 0
  br i1 %.not, label %5, label %3

3:                                                ; preds = %1
  %4 = getelementptr inbounds nuw i8, ptr %0, i64 8
  tail call void @getKeysFreeResult(ptr noundef nonnull %4) #25
  br label %5

5:                                                ; preds = %3, %1
  ret void
}